#include <math.h>
#include <stdio.h>
#include <stdlib.h>
#include <string.h>

int main(int argc, char* argv[])
{
	int i,n,t;
	int *p;
	p=(int *)malloc(sizeof(int)*100);
	scanf("%d",&n);
	for (i=0;i<n;i++)
	{
		scanf("%d",&t);
        *(p+i)=t;
	}
	printf ("%d",*(p+n-1));
	for (i=n-2;i>=0;i--)
	{
		printf(" %d",*(p+i));
	}
	free(p);
	return 0;
}