; ModuleID = 'source-C-CXX/46/5232.c'
source_filename = "source-C-CXX/46/5232.c"
target datalayout = "e-m:e-p270:32:32-p271:32:32-p272:64:64-i64:64-f80:128-n8:16:32:64-S128"
target triple = "x86_64-pc-linux-gnu"

@.str = private unnamed_addr constant [3 x i8] c"%d\00", align 1
@.str.1 = private unnamed_addr constant [4 x i8] c" %d\00", align 1

; Function Attrs: nounwind sspstrong uwtable
define dso_local i32 @main(i32 %0, i8** nocapture readnone %1) local_unnamed_addr #0 {
  %3 = alloca i32, align 4
  %4 = alloca i32, align 4
  %5 = bitcast i32* %3 to i8*
  call void @llvm.lifetime.start.p0i8(i64 4, i8* nonnull %5) #5
  %6 = bitcast i32* %4 to i8*
  call void @llvm.lifetime.start.p0i8(i64 4, i8* nonnull %6) #5
  %7 = tail call noalias align 16 dereferenceable_or_null(400) i8* @malloc(i64 400) #5
  %8 = bitcast i8* %7 to i32*
  %9 = call i32 (i8*, ...) @__isoc99_scanf(i8* getelementptr inbounds ([3 x i8], [3 x i8]* @.str, i64 0, i64 0), i32* nonnull %3)
  %10 = load i32, i32* %3, align 4, !tbaa !5
  %11 = icmp sgt i32 %10, 0
  br i1 %11, label %12, label %21

12:                                               ; preds = %2, %12
  %13 = phi i64 [ %17, %12 ], [ 0, %2 ]
  %14 = call i32 (i8*, ...) @__isoc99_scanf(i8* getelementptr inbounds ([3 x i8], [3 x i8]* @.str, i64 0, i64 0), i32* nonnull %4)
  %15 = load i32, i32* %4, align 4, !tbaa !5
  %16 = getelementptr inbounds i32, i32* %8, i64 %13
  store i32 %15, i32* %16, align 4, !tbaa !5
  %17 = add nuw nsw i64 %13, 1
  %18 = load i32, i32* %3, align 4, !tbaa !5
  %19 = sext i32 %18 to i64
  %20 = icmp slt i64 %17, %19
  br i1 %20, label %12, label %21, !llvm.loop !9

21:                                               ; preds = %12, %2
  %22 = phi i32 [ %10, %2 ], [ %18, %12 ]
  %23 = sext i32 %22 to i64
  %24 = add nsw i64 %23, -1
  %25 = getelementptr inbounds i32, i32* %8, i64 %24
  %26 = load i32, i32* %25, align 4, !tbaa !5
  %27 = call i32 (i8*, ...) @printf(i8* nonnull dereferenceable(1) getelementptr inbounds ([3 x i8], [3 x i8]* @.str, i64 0, i64 0), i32 %26)
  %28 = load i32, i32* %3, align 4, !tbaa !5
  %29 = icmp sgt i32 %28, 1
  br i1 %29, label %30, label %40

30:                                               ; preds = %21
  %31 = add nsw i32 %28, -2
  %32 = zext i32 %31 to i64
  br label %33

33:                                               ; preds = %30, %33
  %34 = phi i64 [ %32, %30 ], [ %39, %33 ]
  %35 = getelementptr inbounds i32, i32* %8, i64 %34
  %36 = load i32, i32* %35, align 4, !tbaa !5
  %37 = call i32 (i8*, ...) @printf(i8* nonnull dereferenceable(1) getelementptr inbounds ([4 x i8], [4 x i8]* @.str.1, i64 0, i64 0), i32 %36)
  %38 = icmp sgt i64 %34, 0
  %39 = add nsw i64 %34, -1
  br i1 %38, label %33, label %40, !llvm.loop !11

40:                                               ; preds = %33, %21
  call void @free(i8* nonnull %7) #5
  call void @llvm.lifetime.end.p0i8(i64 4, i8* nonnull %6) #5
  call void @llvm.lifetime.end.p0i8(i64 4, i8* nonnull %5) #5
  ret i32 0
}

; Function Attrs: argmemonly mustprogress nofree nosync nounwind willreturn
declare void @llvm.lifetime.start.p0i8(i64 immarg, i8* nocapture) #1

; Function Attrs: inaccessiblememonly mustprogress nofree nounwind willreturn
declare noalias noundef align 16 i8* @malloc(i64 noundef) local_unnamed_addr #2

; Function Attrs: nofree nounwind
declare noundef i32 @__isoc99_scanf(i8* nocapture noundef readonly, ...) local_unnamed_addr #3

; Function Attrs: nofree nounwind
declare noundef i32 @printf(i8* nocapture noundef readonly, ...) local_unnamed_addr #3

; Function Attrs: inaccessiblemem_or_argmemonly mustprogress nounwind willreturn
declare void @free(i8* nocapture noundef) local_unnamed_addr #4

; Function Attrs: argmemonly mustprogress nofree nosync nounwind willreturn
declare void @llvm.lifetime.end.p0i8(i64 immarg, i8* nocapture) #1


!llvm.module.flags = !{!0, !1, !2, !3}
!llvm.ident = !{!4}

!0 = !{i32 1, !"wchar_size", i32 4}
!1 = !{i32 7, !"PIC Level", i32 2}
!2 = !{i32 7, !"PIE Level", i32 2}
!3 = !{i32 7, !"uwtable", i32 1}
!4 = !{!"clang version 13.0.0"}
!5 = !{!6, !6, i64 0}
!6 = !{!"int", !7, i64 0}
!7 = !{!"omnipotent char", !8, i64 0}
!8 = !{!"Simple C/C++ TBAA"}
!9 = distinct !{!9, !10}
!10 = !{!"llvm.loop.mustprogress"}
!11 = distinct !{!11, !10}
